; Function Attrs: mustprogress uwtable
define void @_ZN3nix10eval_cache10AttrCursor12maybeGetAttrESt17basic_string_viewIcSt11char_traitsIcEE(ptr dead_on_unwind noalias writable sret(%"class.std::shared_ptr.155") align 8 %0, ptr noundef nonnull align 8 dereferenceable(184) %1, i64 %2, ptr %3) local_unnamed_addr #4 align 2 {
  %5 = getelementptr inbounds i8, ptr %1, i64 16
  %6 = load ptr, ptr %5, align 8
  %7 = getelementptr inbounds i8, ptr %6, i64 32
  %8 = load ptr, ptr %7, align 8
  %9 = getelementptr inbounds i8, ptr %8, i64 16
  %10 = tail call i32 @_ZN3nix11SymbolTable6createESt17basic_string_viewIcSt11char_traitsIcEE(ptr noundef nonnull align 8 dereferenceable(88) %9, i64 %2, ptr %3)
  tail call void @_ZN3nix10eval_cache10AttrCursor12maybeGetAttrENS_6SymbolEb(ptr dead_on_unwind writable sret(%"class.std::shared_ptr.155") align 8 %0, ptr noundef nonnull align 8 dereferenceable(184) %1, i32 %10, i1 noundef zeroext false)
  ret void
}